target datalayout = "e-m:e-p270:32:32-p271:32:32-p272:64:64-i64:64-i128:128-f80:128-n8:16:32:64-S128"
target triple = "x86_64-pc-linux-gnu"

; Function Attrs: mustprogress nounwind uwtable
define dso_local noundef zeroext i1 @_ZN4Luau7CodeGen7compareEddNS0_11IrConditionE(double noundef %0, double noundef %1, i8 noundef zeroext %2) #0 {
  %4 = alloca i1, align 1
  %5 = alloca double, align 8
  %6 = alloca double, align 8
  %7 = alloca i8, align 1
  store double %0, ptr %5, align 8, !tbaa !54
  store double %1, ptr %6, align 8, !tbaa !54
  store i8 %2, ptr %7, align 1, !tbaa !56
  %8 = load i8, ptr %7, align 1, !tbaa !56
  switch i8 %8, label %53 [
    i8 0, label %9
    i8 1, label %13
    i8 2, label %17
    i8 3, label %21
    i8 4, label %26
    i8 5, label %30
    i8 6, label %35
    i8 7, label %39
    i8 8, label %44
    i8 9, label %48
  ]

9:                                                ; preds = %3
  %10 = load double, ptr %5, align 8, !tbaa !54
  %11 = load double, ptr %6, align 8, !tbaa !54
  %12 = fcmp oeq double %10, %11
  store i1 %12, ptr %4, align 1
  br label %55

13:                                               ; preds = %3
  %14 = load double, ptr %5, align 8, !tbaa !54
  %15 = load double, ptr %6, align 8, !tbaa !54
  %16 = fcmp une double %14, %15
  store i1 %16, ptr %4, align 1
  br label %55

17:                                               ; preds = %3
  %18 = load double, ptr %5, align 8, !tbaa !54
  %19 = load double, ptr %6, align 8, !tbaa !54
  %20 = fcmp olt double %18, %19
  store i1 %20, ptr %4, align 1
  br label %55

21:                                               ; preds = %3
  %22 = load double, ptr %5, align 8, !tbaa !54
  %23 = load double, ptr %6, align 8, !tbaa !54
  %24 = fcmp olt double %22, %23
  %25 = xor i1 %24, true
  store i1 %25, ptr %4, align 1
  br label %55

26:                                               ; preds = %3
  %27 = load double, ptr %5, align 8, !tbaa !54
  %28 = load double, ptr %6, align 8, !tbaa !54
  %29 = fcmp ole double %27, %28
  store i1 %29, ptr %4, align 1
  br label %55

30:                                               ; preds = %3
  %31 = load double, ptr %5, align 8, !tbaa !54
  %32 = load double, ptr %6, align 8, !tbaa !54
  %33 = fcmp ole double %31, %32
  %34 = xor i1 %33, true
  store i1 %34, ptr %4, align 1
  br label %55

35:                                               ; preds = %3
  %36 = load double, ptr %5, align 8, !tbaa !54
  %37 = load double, ptr %6, align 8, !tbaa !54
  %38 = fcmp ogt double %36, %37
  store i1 %38, ptr %4, align 1
  br label %55

39:                                               ; preds = %3
  %40 = load double, ptr %5, align 8, !tbaa !54
  %41 = load double, ptr %6, align 8, !tbaa !54
  %42 = fcmp ogt double %40, %41
  %43 = xor i1 %42, true
  store i1 %43, ptr %4, align 1
  br label %55

44:                                               ; preds = %3
  %45 = load double, ptr %5, align 8, !tbaa !54
  %46 = load double, ptr %6, align 8, !tbaa !54
  %47 = fcmp oge double %45, %46
  store i1 %47, ptr %4, align 1
  br label %55

48:                                               ; preds = %3
  %49 = load double, ptr %5, align 8, !tbaa !54
  %50 = load double, ptr %6, align 8, !tbaa !54
  %51 = fcmp oge double %49, %50
  %52 = xor i1 %51, true
  store i1 %52, ptr %4, align 1
  br label %55

53:                                               ; preds = %3
  br label %54

54:                                               ; preds = %53
  store i1 false, ptr %4, align 1
  br label %55

55:                                               ; preds = %54, %48, %44, %39, %35, %30, %26, %21, %17, %13, %9
  %56 = load i1, ptr %4, align 1
  ret i1 %56
}