; Function Attrs: mustprogress nofree norecurse nosync nounwind willreturn memory(none) uwtable
define dso_local noundef zeroext i1 @_ZN4Luau7CodeGen7compareEddNS0_11IrConditionE(double noundef %0, double noundef %1, i8 noundef zeroext %2) local_unnamed_addr #0 {
  switch i8 %2, label %24 [
    i8 0, label %4
    i8 1, label %6
    i8 2, label %8
    i8 3, label %10
    i8 4, label %12
    i8 5, label %14
    i8 6, label %16
    i8 7, label %18
    i8 8, label %20
    i8 9, label %22
  ]

4:                                                ; preds = %3
  %5 = fcmp oeq double %0, %1
  br label %24

6:                                                ; preds = %3
  %7 = fcmp une double %0, %1
  br label %24

8:                                                ; preds = %3
  %9 = fcmp olt double %0, %1
  br label %24

10:                                               ; preds = %3
  %11 = fcmp uge double %0, %1
  br label %24

12:                                               ; preds = %3
  %13 = fcmp ole double %0, %1
  br label %24

14:                                               ; preds = %3
  %15 = fcmp ugt double %0, %1
  br label %24

16:                                               ; preds = %3
  %17 = fcmp ogt double %0, %1
  br label %24

18:                                               ; preds = %3
  %19 = fcmp ule double %0, %1
  br label %24

20:                                               ; preds = %3
  %21 = fcmp oge double %0, %1
  br label %24

22:                                               ; preds = %3
  %23 = fcmp ult double %0, %1
  br label %24

24:                                               ; preds = %3, %22, %20, %18, %16, %14, %12, %10, %8, %6, %4
  %.0 = phi i1 [ %23, %22 ], [ %21, %20 ], [ %19, %18 ], [ %17, %16 ], [ %15, %14 ], [ %13, %12 ], [ %11, %10 ], [ %9, %8 ], [ %7, %6 ], [ %5, %4 ], [ false, %3 ]
  ret i1 %.0
}